target datalayout = "e-m:e-p270:32:32-p271:32:32-p272:64:64-i64:64-i128:128-f80:128-n8:16:32:64-S128"
target triple = "x86_64-pc-linux-gnu"

%struct.recent_settings_tag = type { i8, i8, i8, i8, i8, i8, i8, i8, i8, i8, i32, i32, i32, i32, i32, i32, i8, i8, i32, i32, i8, i8, i8, i32, i32, i32, i32, i32, i32, i32, i32, i32, i8, i8, i32, i32, ptr, ptr, ptr, i8, i8, ptr, ptr, ptr, ptr, ptr, i32, ptr, i8, ptr, ptr, ptr }

@recent = external global %struct.recent_settings_tag, align 8
@.str.19 = private unnamed_addr constant [1 x i8] zeroinitializer, align 1
@.str.20 = private unnamed_addr constant [29 x i8] c"ui/qt/utils/data_printer.cpp\00", align 1
@__func__._ZN11DataPrinter8hexCharsEv = private unnamed_addr constant [9 x i8] c"hexChars\00", align 1
@.str.21 = private unnamed_addr constant [31 x i8] c"assertion \22not reached\22 failed\00", align 1

; Function Attrs: mustprogress nounwind null_pointer_is_valid sspstrong uwtable
define linkonce_odr noundef i32 @_ZN11DataPrinter17separatorIntervalEv() #5 comdat align 2 {
  ret i32 8
}

; Function Attrs: mustprogress null_pointer_is_valid sspstrong uwtable
define noundef i32 @_ZN11DataPrinter8hexCharsEv() #0 align 2 {
  %1 = alloca i32, align 4
  %2 = alloca i32, align 4
  call void @llvm.lifetime.start.p0(i64 4, ptr %1) #18
  call void @llvm.lifetime.start.p0(i64 4, ptr %2) #18
  %3 = load i32, ptr getelementptr inbounds nuw (%struct.recent_settings_tag, ptr @recent, i32 0, i32 14), align 4
  switch i32 %3, label %7 [
    i32 0, label %4
    i32 1, label %5
    i32 2, label %6
    i32 3, label %6
  ]

4:                                                ; preds = %0
  store i32 16, ptr %1, align 4
  store i32 3, ptr %2, align 4
  br label %8

5:                                                ; preds = %0
  store i32 8, ptr %1, align 4
  store i32 9, ptr %2, align 4
  br label %8

6:                                                ; preds = %0, %0
  store i32 16, ptr %1, align 4
  store i32 4, ptr %2, align 4
  br label %8

7:                                                ; preds = %0
  call void (ptr, i32, ptr, i64, ptr, ptr, ...) @ws_log_fatal_full(ptr noundef @.str.19, i32 noundef 7, ptr noundef @.str.20, i64 noundef 196, ptr noundef @__func__._ZN11DataPrinter8hexCharsEv, ptr noundef @.str.21) #22
  unreachable

8:                                                ; preds = %6, %5, %4
  %9 = load i32, ptr %1, align 4
  %10 = load i32, ptr %2, align 4
  %11 = mul i32 %9, %10
  %12 = load i32, ptr %1, align 4
  %13 = sub i32 %12, 1
  %14 = call noundef i32 @_ZN11DataPrinter17separatorIntervalEv()
  %15 = sdiv i32 %13, %14
  %16 = add i32 %11, %15
  call void @llvm.lifetime.end.p0(i64 4, ptr %2) #18
  call void @llvm.lifetime.end.p0(i64 4, ptr %1) #18
  ret i32 %16
}