; Function Attrs: mustprogress null_pointer_is_valid sspstrong uwtable
define noundef range(i32 24, 146) i32 @_ZN11DataPrinter8hexCharsEv() local_unnamed_addr #0 align 2 {
  %1 = load i32, ptr getelementptr inbounds nuw (i8, ptr @recent, i64 28), align 4
  %2 = icmp ult i32 %1, 4
  br i1 %2, label %switch.lookup, label %3

3:                                                ; preds = %0
  tail call void (ptr, i32, ptr, i64, ptr, ptr, ...) @ws_log_fatal_full(ptr noundef nonnull @.str.19, i32 noundef 7, ptr noundef nonnull @.str.20, i64 noundef 196, ptr noundef nonnull @__func__._ZN11DataPrinter8hexCharsEv, ptr noundef nonnull @.str.21) #21
  unreachable

switch.lookup:                                    ; preds = %0
  %4 = zext nneg i32 %1 to i64
  %switch.gep = getelementptr inbounds nuw [4 x i32], ptr @switch.table._ZN11DataPrinter8hexCharsEv, i64 0, i64 %4
  %switch.load = load i32, ptr %switch.gep, align 4
  %5 = zext nneg i32 %1 to i64
  %switch.gep4 = getelementptr inbounds nuw [4 x i32], ptr @switch.table._ZN11DataPrinter8hexCharsEv.1, i64 0, i64 %5
  %switch.load5 = load i32, ptr %switch.gep4, align 4
  %6 = zext nneg i32 %1 to i64
  %switch.gep6 = getelementptr inbounds nuw [4 x i32], ptr @switch.table._ZN11DataPrinter8hexCharsEv.2, i64 0, i64 %6
  %switch.load7 = load i32, ptr %switch.gep6, align 4
  %7 = mul nuw nsw i32 %switch.load7, %switch.load5
  %8 = or disjoint i32 %7, %switch.load
  ret i32 %8
}